target datalayout = "e-m:e-p270:32:32-p271:32:32-p272:64:64-i64:64-i128:128-f80:128-n8:16:32:64-S128"
target triple = "x86_64-pc-linux-gnu"

%struct.JNINativeInterface_ = type { ptr, ptr, ptr, ptr, ptr, ptr, ptr, ptr, ptr, ptr, ptr, ptr, ptr, ptr, ptr, ptr, ptr, ptr, ptr, ptr, ptr, ptr, ptr, ptr, ptr, ptr, ptr, ptr, ptr, ptr, ptr, ptr, ptr, ptr, ptr, ptr, ptr, ptr, ptr, ptr, ptr, ptr, ptr, ptr, ptr, ptr, ptr, ptr, ptr, ptr, ptr, ptr, ptr, ptr, ptr, ptr, ptr, ptr, ptr, ptr, ptr, ptr, ptr, ptr, ptr, ptr, ptr, ptr, ptr, ptr, ptr, ptr, ptr, ptr, ptr, ptr, ptr, ptr, ptr, ptr, ptr, ptr, ptr, ptr, ptr, ptr, ptr, ptr, ptr, ptr, ptr, ptr, ptr, ptr, ptr, ptr, ptr, ptr, ptr, ptr, ptr, ptr, ptr, ptr, ptr, ptr, ptr, ptr, ptr, ptr, ptr, ptr, ptr, ptr, ptr, ptr, ptr, ptr, ptr, ptr, ptr, ptr, ptr, ptr, ptr, ptr, ptr, ptr, ptr, ptr, ptr, ptr, ptr, ptr, ptr, ptr, ptr, ptr, ptr, ptr, ptr, ptr, ptr, ptr, ptr, ptr, ptr, ptr, ptr, ptr, ptr, ptr, ptr, ptr, ptr, ptr, ptr, ptr, ptr, ptr, ptr, ptr, ptr, ptr, ptr, ptr, ptr, ptr, ptr, ptr, ptr, ptr, ptr, ptr, ptr, ptr, ptr, ptr, ptr, ptr, ptr, ptr, ptr, ptr, ptr, ptr, ptr, ptr, ptr, ptr, ptr, ptr, ptr, ptr, ptr, ptr, ptr, ptr, ptr, ptr, ptr, ptr, ptr, ptr, ptr, ptr, ptr, ptr, ptr, ptr, ptr, ptr, ptr, ptr, ptr, ptr, ptr, ptr, ptr, ptr, ptr, ptr, ptr, ptr, ptr, ptr, ptr, ptr, ptr, ptr, ptr, ptr, ptr, ptr, ptr }
%struct.anon = type { ptr, ptr, i32, i32, i32, i32, ptr, i64, i64, i64, i32, ptr, i32, i32, i32, i32, i32, ptr, i32, i32, ptr, ptr, i32, i64, i64, ptr, ptr, ptr, ptr, i32, ptr, ptr, ptr, i32, i32, ptr, i64, i64, i32, i32, ptr, ptr, i32, ptr }
%struct._AwtGraphicsConfigData = type { i32, i64, %struct.XVisualInfo, i32, ptr, ptr, ptr, i64, i32, i32, ptr, i32, ptr, ptr, i32, %struct.XRenderPictFormat }
%struct.XVisualInfo = type { ptr, i64, i32, i32, i32, i64, i64, i64, i32, i32 }
%struct.XRenderPictFormat = type { i64, i32, i32, %struct.XRenderDirectFormat, i64 }
%struct.XRenderDirectFormat = type { i16, i16, i16, i16, i16, i16, i16, i16 }

@tkClass = external global ptr, align 8
@awtLockMID = external global ptr, align 8
@awt_display = external global ptr, align 8
@awtUnlockMID = external global ptr, align 8

; Function Attrs: nounwind uwtable
define i64 @Java_sun_awt_X11_XToolkit_getDefaultXColormap(ptr noundef %0, ptr noundef %1) #0 {
  %3 = alloca ptr, align 8
  %4 = alloca ptr, align 8
  %5 = alloca ptr, align 8
  %6 = alloca ptr, align 8
  store ptr %0, ptr %3, align 8
  store ptr %1, ptr %4, align 8
  br label %7

7:                                                ; preds = %2
  %8 = load ptr, ptr %3, align 8
  %9 = load ptr, ptr %8, align 8
  %10 = getelementptr inbounds %struct.JNINativeInterface_, ptr %9, i32 0, i32 228
  %11 = load ptr, ptr %10, align 8
  %12 = load ptr, ptr %3, align 8
  %13 = call zeroext i8 %11(ptr noundef %12)
  %14 = icmp ne i8 %13, 0
  br i1 %14, label %15, label %21

15:                                               ; preds = %7
  %16 = load ptr, ptr %3, align 8
  %17 = load ptr, ptr %16, align 8
  %18 = getelementptr inbounds %struct.JNINativeInterface_, ptr %17, i32 0, i32 17
  %19 = load ptr, ptr %18, align 8
  %20 = load ptr, ptr %3, align 8
  call void %19(ptr noundef %20)
  br label %21

21:                                               ; preds = %15, %7
  %22 = load ptr, ptr %3, align 8
  %23 = load ptr, ptr %22, align 8
  %24 = getelementptr inbounds %struct.JNINativeInterface_, ptr %23, i32 0, i32 141
  %25 = load ptr, ptr %24, align 8
  %26 = load ptr, ptr %3, align 8
  %27 = load ptr, ptr @tkClass, align 8
  %28 = load ptr, ptr @awtLockMID, align 8
  call void (ptr, ptr, ptr, ...) %25(ptr noundef %26, ptr noundef %27, ptr noundef %28)
  %29 = load ptr, ptr %3, align 8
  %30 = load ptr, ptr %29, align 8
  %31 = getelementptr inbounds %struct.JNINativeInterface_, ptr %30, i32 0, i32 228
  %32 = load ptr, ptr %31, align 8
  %33 = load ptr, ptr %3, align 8
  %34 = call zeroext i8 %32(ptr noundef %33)
  %35 = icmp ne i8 %34, 0
  br i1 %35, label %36, label %42

36:                                               ; preds = %21
  %37 = load ptr, ptr %3, align 8
  %38 = load ptr, ptr %37, align 8
  %39 = getelementptr inbounds %struct.JNINativeInterface_, ptr %38, i32 0, i32 17
  %40 = load ptr, ptr %39, align 8
  %41 = load ptr, ptr %3, align 8
  call void %40(ptr noundef %41)
  br label %42

42:                                               ; preds = %36, %21
  br label %43

43:                                               ; preds = %42
  %44 = load ptr, ptr @awt_display, align 8
  %45 = getelementptr inbounds %struct.anon, ptr %44, i32 0, i32 33
  %46 = load i32, ptr %45, align 8
  %47 = call ptr @getDefaultConfig(i32 noundef %46)
  store ptr %47, ptr %5, align 8
  br label %48

48:                                               ; preds = %43
  call void @awt_output_flush()
  br label %49

49:                                               ; preds = %48
  %50 = load ptr, ptr %3, align 8
  %51 = load ptr, ptr %50, align 8
  %52 = getelementptr inbounds %struct.JNINativeInterface_, ptr %51, i32 0, i32 15
  %53 = load ptr, ptr %52, align 8
  %54 = load ptr, ptr %3, align 8
  %55 = call ptr %53(ptr noundef %54)
  store ptr %55, ptr %6, align 8
  %56 = icmp ne ptr %55, null
  br i1 %56, label %57, label %63

57:                                               ; preds = %49
  %58 = load ptr, ptr %3, align 8
  %59 = load ptr, ptr %58, align 8
  %60 = getelementptr inbounds %struct.JNINativeInterface_, ptr %59, i32 0, i32 17
  %61 = load ptr, ptr %60, align 8
  %62 = load ptr, ptr %3, align 8
  call void %61(ptr noundef %62)
  br label %63

63:                                               ; preds = %57, %49
  %64 = load ptr, ptr %3, align 8
  %65 = load ptr, ptr %64, align 8
  %66 = getelementptr inbounds %struct.JNINativeInterface_, ptr %65, i32 0, i32 141
  %67 = load ptr, ptr %66, align 8
  %68 = load ptr, ptr %3, align 8
  %69 = load ptr, ptr @tkClass, align 8
  %70 = load ptr, ptr @awtUnlockMID, align 8
  call void (ptr, ptr, ptr, ...) %67(ptr noundef %68, ptr noundef %69, ptr noundef %70)
  %71 = load ptr, ptr %3, align 8
  %72 = load ptr, ptr %71, align 8
  %73 = getelementptr inbounds %struct.JNINativeInterface_, ptr %72, i32 0, i32 228
  %74 = load ptr, ptr %73, align 8
  %75 = load ptr, ptr %3, align 8
  %76 = call zeroext i8 %74(ptr noundef %75)
  %77 = icmp ne i8 %76, 0
  br i1 %77, label %78, label %84

78:                                               ; preds = %63
  %79 = load ptr, ptr %3, align 8
  %80 = load ptr, ptr %79, align 8
  %81 = getelementptr inbounds %struct.JNINativeInterface_, ptr %80, i32 0, i32 17
  %82 = load ptr, ptr %81, align 8
  %83 = load ptr, ptr %3, align 8
  call void %82(ptr noundef %83)
  br label %84

84:                                               ; preds = %78, %63
  %85 = load ptr, ptr %6, align 8
  %86 = icmp ne ptr %85, null
  br i1 %86, label %87, label %95

87:                                               ; preds = %84
  %88 = load ptr, ptr %3, align 8
  %89 = load ptr, ptr %88, align 8
  %90 = getelementptr inbounds %struct.JNINativeInterface_, ptr %89, i32 0, i32 13
  %91 = load ptr, ptr %90, align 8
  %92 = load ptr, ptr %3, align 8
  %93 = load ptr, ptr %6, align 8
  %94 = call i32 %91(ptr noundef %92, ptr noundef %93)
  br label %95

95:                                               ; preds = %87, %84
  br label %96

96:                                               ; preds = %95
  br label %97

97:                                               ; preds = %96
  %98 = load ptr, ptr %5, align 8
  %99 = getelementptr inbounds %struct._AwtGraphicsConfigData, ptr %98, i32 0, i32 1
  %100 = load i64, ptr %99, align 8
  ret i64 %100
}