; Function Attrs: nounwind uwtable
define i64 @Java_sun_awt_X11_XToolkit_getDefaultXColormap(ptr noundef %0, ptr nocapture noundef readnone %1) local_unnamed_addr #0 {
  %3 = load ptr, ptr %0, align 8
  %4 = getelementptr inbounds i8, ptr %3, i64 1824
  %5 = load ptr, ptr %4, align 8
  %6 = tail call zeroext i8 %5(ptr noundef nonnull %0) #13
  %.not = icmp eq i8 %6, 0
  br i1 %.not, label %11, label %7

7:                                                ; preds = %2
  %8 = load ptr, ptr %0, align 8
  %9 = getelementptr inbounds i8, ptr %8, i64 136
  %10 = load ptr, ptr %9, align 8
  tail call void %10(ptr noundef nonnull %0) #13
  br label %11

11:                                               ; preds = %7, %2
  %12 = load ptr, ptr %0, align 8
  %13 = getelementptr inbounds i8, ptr %12, i64 1128
  %14 = load ptr, ptr %13, align 8
  %15 = load ptr, ptr @tkClass, align 8
  %16 = load ptr, ptr @awtLockMID, align 8
  tail call void (ptr, ptr, ptr, ...) %14(ptr noundef nonnull %0, ptr noundef %15, ptr noundef %16) #13
  %17 = load ptr, ptr %0, align 8
  %18 = getelementptr inbounds i8, ptr %17, i64 1824
  %19 = load ptr, ptr %18, align 8
  %20 = tail call zeroext i8 %19(ptr noundef nonnull %0) #13
  %.not25 = icmp eq i8 %20, 0
  br i1 %.not25, label %25, label %21

21:                                               ; preds = %11
  %22 = load ptr, ptr %0, align 8
  %23 = getelementptr inbounds i8, ptr %22, i64 136
  %24 = load ptr, ptr %23, align 8
  tail call void %24(ptr noundef nonnull %0) #13
  br label %25

25:                                               ; preds = %11, %21
  %26 = load ptr, ptr @awt_display, align 8
  %27 = getelementptr inbounds i8, ptr %26, i64 224
  %28 = load i32, ptr %27, align 8
  %29 = tail call ptr @getDefaultConfig(i32 noundef %28) #13
  tail call void @awt_output_flush()
  %30 = load ptr, ptr %0, align 8
  %31 = getelementptr inbounds i8, ptr %30, i64 120
  %32 = load ptr, ptr %31, align 8
  %33 = tail call ptr %32(ptr noundef nonnull %0) #13
  %.not26 = icmp eq ptr %33, null
  br i1 %.not26, label %38, label %34

34:                                               ; preds = %25
  %35 = load ptr, ptr %0, align 8
  %36 = getelementptr inbounds i8, ptr %35, i64 136
  %37 = load ptr, ptr %36, align 8
  tail call void %37(ptr noundef nonnull %0) #13
  br label %38

38:                                               ; preds = %34, %25
  %39 = load ptr, ptr %0, align 8
  %40 = getelementptr inbounds i8, ptr %39, i64 1128
  %41 = load ptr, ptr %40, align 8
  %42 = load ptr, ptr @tkClass, align 8
  %43 = load ptr, ptr @awtUnlockMID, align 8
  tail call void (ptr, ptr, ptr, ...) %41(ptr noundef nonnull %0, ptr noundef %42, ptr noundef %43) #13
  %44 = load ptr, ptr %0, align 8
  %45 = getelementptr inbounds i8, ptr %44, i64 1824
  %46 = load ptr, ptr %45, align 8
  %47 = tail call zeroext i8 %46(ptr noundef nonnull %0) #13
  %.not27 = icmp eq i8 %47, 0
  br i1 %.not27, label %52, label %48

48:                                               ; preds = %38
  %49 = load ptr, ptr %0, align 8
  %50 = getelementptr inbounds i8, ptr %49, i64 136
  %51 = load ptr, ptr %50, align 8
  tail call void %51(ptr noundef nonnull %0) #13
  br label %52

52:                                               ; preds = %48, %38
  br i1 %.not26, label %58, label %53

53:                                               ; preds = %52
  %54 = load ptr, ptr %0, align 8
  %55 = getelementptr inbounds i8, ptr %54, i64 104
  %56 = load ptr, ptr %55, align 8
  %57 = tail call i32 %56(ptr noundef nonnull %0, ptr noundef nonnull %33) #13
  br label %58

58:                                               ; preds = %53, %52
  %59 = getelementptr inbounds i8, ptr %29, i64 8
  %60 = load i64, ptr %59, align 8
  ret i64 %60
}